; Function Attrs: nounwind sspstrong uwtable
define internal range(i64 0, 21) i64 @ossl_x509name_eql(i64 noundef %0, i64 noundef %1) #0 {
  %3 = load i64, ptr @cX509Name, align 8, !tbaa !6
  %4 = tail call i64 @rb_obj_is_kind_of(i64 noundef %1, i64 noundef %3) #8
  %.not = icmp eq i64 %4, 0
  br i1 %.not, label %16, label %5

5:                                                ; preds = %2
  %6 = tail call ptr @rb_check_typeddata(i64 noundef %0, ptr noundef nonnull @ossl_x509name_type) #8
  %.not.i = icmp eq ptr %6, null
  br i1 %.not.i, label %7, label %9

7:                                                ; preds = %5
  %8 = load i64, ptr @rb_eRuntimeError, align 8, !tbaa !6
  tail call void (i64, ptr, ...) @ossl_raise(i64 noundef %8, ptr noundef nonnull @.str) #9
  unreachable

9:                                                ; preds = %5
  %10 = tail call ptr @rb_check_typeddata(i64 noundef %1, ptr noundef nonnull @ossl_x509name_type) #8
  %.not6.i = icmp eq ptr %10, null
  br i1 %.not6.i, label %11, label %ossl_x509name_cmp0.exit

11:                                               ; preds = %9
  %12 = load i64, ptr @rb_eRuntimeError, align 8, !tbaa !6
  tail call void (i64, ptr, ...) @ossl_raise(i64 noundef %12, ptr noundef nonnull @.str) #9
  unreachable

ossl_x509name_cmp0.exit:                          ; preds = %9
  %13 = tail call i32 @X509_NAME_cmp(ptr noundef nonnull %6, ptr noundef nonnull %10) #8
  %14 = icmp eq i32 %13, 0
  %15 = select i1 %14, i64 20, i64 0
  br label %16

16:                                               ; preds = %2, %ossl_x509name_cmp0.exit
  %.0 = phi i64 [ %15, %ossl_x509name_cmp0.exit ], [ 0, %2 ]
  ret i64 %.0
}